target datalayout = "e-m:e-p270:32:32-p271:32:32-p272:64:64-i64:64-i128:128-f80:128-n8:16:32:64-S128"
target triple = "x86_64-unknown-linux-gnu"

%"class.llvh::SmallVectorBase" = type { ptr, i32, i32 }
%"struct.llvh::AlignedCharArray" = type { [8 x i8] }
%"struct.llvh::AlignedCharArray.40" = type { [16 x i8] }
%"class.hermes::BasicBlock" = type { %"class.llvh::ilist_node_with_parent.21", %"class.hermes::Value", %"class.llvh::iplist.23", ptr }
%"class.llvh::ilist_node_with_parent.21" = type { %"class.llvh::ilist_node.22" }
%"class.llvh::ilist_node.22" = type { %"class.llvh::ilist_node_impl.14" }
%"class.llvh::ilist_node_impl.14" = type { %"class.llvh::ilist_node_base" }
%"class.llvh::ilist_node_base" = type { ptr, ptr }
%"class.hermes::Value" = type { i8, %"class.hermes::Type", %"class.llvh::SmallVector.8" }
%"class.hermes::Type" = type { i16, i16 }
%"class.llvh::SmallVector.8" = type { %"class.llvh::SmallVectorImpl.9", %"struct.llvh::SmallVectorStorage.12" }
%"class.llvh::SmallVectorImpl.9" = type { %"class.llvh::SmallVectorTemplateBase.10" }
%"class.llvh::SmallVectorTemplateBase.10" = type { %"class.llvh::SmallVectorTemplateCommon.11" }
%"class.llvh::SmallVectorTemplateCommon.11" = type { %"class.llvh::SmallVectorBase" }
%"struct.llvh::SmallVectorStorage.12" = type { [2 x %"struct.llvh::AlignedCharArrayUnion.13"] }
%"struct.llvh::AlignedCharArrayUnion.13" = type { %"struct.llvh::AlignedCharArray" }
%"class.llvh::iplist.23" = type { %"class.llvh::iplist_impl.24" }
%"class.llvh::iplist_impl.24" = type { %"class.llvh::simple_ilist.29" }
%"class.llvh::simple_ilist.29" = type { %"class.llvh::ilist_sentinel.31" }
%"class.llvh::ilist_sentinel.31" = type { %"class.llvh::ilist_node_impl.32" }
%"class.llvh::ilist_node_impl.32" = type { %"class.llvh::ilist_node_base" }
%"class.llvh::SMLoc" = type { ptr }
%"class.llvh::ilist_iterator" = type { ptr }
%"class.hermes::Instruction" = type <{ %"class.llvh::ilist_node_with_parent.51", %"class.hermes::Value", ptr, %"class.llvh::SmallVector.53", ptr, %"class.llvh::SMLoc", i32, [4 x i8] }>
%"class.llvh::ilist_node_with_parent.51" = type { %"class.llvh::ilist_node.52" }
%"class.llvh::ilist_node.52" = type { %"class.llvh::ilist_node_impl.32" }
%"class.llvh::SmallVector.53" = type { %"class.llvh::SmallVectorImpl.54", %"struct.llvh::SmallVectorStorage.57" }
%"class.llvh::SmallVectorImpl.54" = type { %"class.llvh::SmallVectorTemplateBase.55" }
%"class.llvh::SmallVectorTemplateBase.55" = type { %"class.llvh::SmallVectorTemplateCommon.56" }
%"class.llvh::SmallVectorTemplateCommon.56" = type { %"class.llvh::SmallVectorBase" }
%"struct.llvh::SmallVectorStorage.57" = type { [2 x %"struct.llvh::AlignedCharArrayUnion.58"] }
%"struct.llvh::AlignedCharArrayUnion.58" = type { %"struct.llvh::AlignedCharArray.40" }

; Function Attrs: mustprogress nounwind uwtable
define linkonce_odr hidden noundef ptr @_ZNK4llvh15ilist_node_baseILb0EE7getNextEv(ptr noundef nonnull align 8 dereferenceable(16) %this) #0 comdat align 2 {
entry:
  %this.addr = alloca ptr, align 8
  store ptr %this, ptr %this.addr, align 8
  %this1 = load ptr, ptr %this.addr, align 8
  %Next = getelementptr inbounds %"class.llvh::ilist_node_base", ptr %this1, i32 0, i32 1
  %0 = load ptr, ptr %Next, align 8
  ret ptr %0
}

; Function Attrs: mustprogress nounwind uwtable
define linkonce_odr hidden noundef ptr @_ZNK4llvh15ilist_node_implINS_12ilist_detail12node_optionsIN6hermes11InstructionELb0ELb0EvEEE7getNextEv(ptr noundef nonnull align 8 dereferenceable(16) %this) #0 comdat align 2 {
entry:
  %this.addr = alloca ptr, align 8
  store ptr %this, ptr %this.addr, align 8
  %this1 = load ptr, ptr %this.addr, align 8
  %call = call noundef ptr @_ZNK4llvh15ilist_node_baseILb0EE7getNextEv(ptr noundef nonnull align 8 dereferenceable(16) %this1)
  ret ptr %call
}

; Function Attrs: mustprogress nounwind uwtable
define linkonce_odr hidden noundef ptr @_ZNK4llvh15ilist_node_baseILb0EE7getPrevEv(ptr noundef nonnull align 8 dereferenceable(16) %this) #0 comdat align 2 {
entry:
  %this.addr = alloca ptr, align 8
  store ptr %this, ptr %this.addr, align 8
  %this1 = load ptr, ptr %this.addr, align 8
  %Prev = getelementptr inbounds %"class.llvh::ilist_node_base", ptr %this1, i32 0, i32 0
  %0 = load ptr, ptr %Prev, align 8
  ret ptr %0
}

; Function Attrs: mustprogress nounwind uwtable
define linkonce_odr hidden noundef nonnull align 8 dereferenceable(8) ptr @_ZN4llvh14ilist_iteratorINS_12ilist_detail12node_optionsIN6hermes11InstructionELb0ELb0EvEELb0ELb1EEppEv(ptr noundef nonnull align 8 dereferenceable(8) %this) #0 comdat align 2 {
entry:
  %this.addr = alloca ptr, align 8
  store ptr %this, ptr %this.addr, align 8
  %this1 = load ptr, ptr %this.addr, align 8
  %NodePtr = getelementptr inbounds %"class.llvh::ilist_iterator", ptr %this1, i32 0, i32 0
  %0 = load ptr, ptr %NodePtr, align 8
  %call = call noundef ptr @_ZNK4llvh15ilist_node_implINS_12ilist_detail12node_optionsIN6hermes11InstructionELb0ELb0EvEEE7getNextEv(ptr noundef nonnull align 8 dereferenceable(16) %0)
  %NodePtr2 = getelementptr inbounds %"class.llvh::ilist_iterator", ptr %this1, i32 0, i32 0
  store ptr %call, ptr %NodePtr2, align 8
  ret ptr %this1
}

; Function Attrs: mustprogress nounwind uwtable
define linkonce_odr hidden noundef ptr @_ZNK4llvh15ilist_node_implINS_12ilist_detail12node_optionsIN6hermes11InstructionELb0ELb0EvEEE7getPrevEv(ptr noundef nonnull align 8 dereferenceable(16) %this) #0 comdat align 2 {
entry:
  %this.addr = alloca ptr, align 8
  store ptr %this, ptr %this.addr, align 8
  %this1 = load ptr, ptr %this.addr, align 8
  %call = call noundef ptr @_ZNK4llvh15ilist_node_baseILb0EE7getPrevEv(ptr noundef nonnull align 8 dereferenceable(16) %this1)
  ret ptr %call
}

; Function Attrs: mustprogress nounwind uwtable
define linkonce_odr hidden ptr @_ZNK4llvh12simple_ilistIN6hermes11InstructionEJEE5beginEv(ptr noundef nonnull align 8 dereferenceable(16) %this) #0 comdat align 2 {
entry:
  %retval = alloca %"class.llvh::ilist_iterator", align 8
  %this.addr = alloca ptr, align 8
  %ref.tmp = alloca %"class.llvh::ilist_iterator", align 8
  store ptr %this, ptr %this.addr, align 8
  %this1 = load ptr, ptr %this.addr, align 8
  %Sentinel = getelementptr inbounds %"class.llvh::simple_ilist.29", ptr %this1, i32 0, i32 0
  call void @_ZN4llvh14ilist_iteratorINS_12ilist_detail12node_optionsIN6hermes11InstructionELb0ELb0EvEELb0ELb1EEC2ERKNS_15ilist_node_implIS5_EE(ptr noundef nonnull align 8 dereferenceable(8) %ref.tmp, ptr noundef nonnull align 8 dereferenceable(16) %Sentinel)
  %call = call noundef nonnull align 8 dereferenceable(8) ptr @_ZN4llvh14ilist_iteratorINS_12ilist_detail12node_optionsIN6hermes11InstructionELb0ELb0EvEELb0ELb1EEppEv(ptr noundef nonnull align 8 dereferenceable(8) %ref.tmp)
  call void @llvm.memcpy.p0.p0.i64(ptr align 8 %retval, ptr align 8 %call, i64 8, i1 false)
  %coerce.dive = getelementptr inbounds %"class.llvh::ilist_iterator", ptr %retval, i32 0, i32 0
  %0 = load ptr, ptr %coerce.dive, align 8
  ret ptr %0
}

; Function Attrs: mustprogress nounwind uwtable
define linkonce_odr hidden void @_ZN4llvh14ilist_iteratorINS_12ilist_detail12node_optionsIN6hermes11InstructionELb0ELb0EvEELb0ELb1EEC2ERKNS_15ilist_node_implIS5_EE(ptr noundef nonnull align 8 dereferenceable(8) %this, ptr noundef nonnull align 8 dereferenceable(16) %N) unnamed_addr #0 comdat align 2 {
entry:
  %this.addr = alloca ptr, align 8
  %N.addr = alloca ptr, align 8
  store ptr %this, ptr %this.addr, align 8
  store ptr %N, ptr %N.addr, align 8
  %this1 = load ptr, ptr %this.addr, align 8
  %NodePtr = getelementptr inbounds %"class.llvh::ilist_iterator", ptr %this1, i32 0, i32 0
  %0 = load ptr, ptr %N.addr, align 8
  store ptr %0, ptr %NodePtr, align 8
  ret void
}

; Function Attrs: mustprogress nounwind uwtable
define linkonce_odr hidden noundef zeroext i1 @_ZN4llvheqERKNS_14ilist_iteratorINS_12ilist_detail12node_optionsIN6hermes11InstructionELb0ELb0EvEELb0ELb1EEES8_(ptr noundef nonnull align 8 dereferenceable(8) %LHS, ptr noundef nonnull align 8 dereferenceable(8) %RHS) #0 comdat {
entry:
  %LHS.addr = alloca ptr, align 8
  %RHS.addr = alloca ptr, align 8
  store ptr %LHS, ptr %LHS.addr, align 8
  store ptr %RHS, ptr %RHS.addr, align 8
  %0 = load ptr, ptr %LHS.addr, align 8
  %NodePtr = getelementptr inbounds %"class.llvh::ilist_iterator", ptr %0, i32 0, i32 0
  %1 = load ptr, ptr %NodePtr, align 8
  %2 = load ptr, ptr %RHS.addr, align 8
  %NodePtr1 = getelementptr inbounds %"class.llvh::ilist_iterator", ptr %2, i32 0, i32 0
  %3 = load ptr, ptr %NodePtr1, align 8
  %cmp = icmp eq ptr %1, %3
  ret i1 %cmp
}

; Function Attrs: mustprogress nounwind uwtable
define linkonce_odr hidden noundef nonnull align 8 dereferenceable(8) ptr @_ZN4llvh14ilist_iteratorINS_12ilist_detail12node_optionsIN6hermes11InstructionELb0ELb0EvEELb0ELb1EEmmEv(ptr noundef nonnull align 8 dereferenceable(8) %this) #0 comdat align 2 {
entry:
  %this.addr = alloca ptr, align 8
  store ptr %this, ptr %this.addr, align 8
  %this1 = load ptr, ptr %this.addr, align 8
  %NodePtr = getelementptr inbounds %"class.llvh::ilist_iterator", ptr %this1, i32 0, i32 0
  %0 = load ptr, ptr %NodePtr, align 8
  %call = call noundef ptr @_ZNK4llvh15ilist_node_implINS_12ilist_detail12node_optionsIN6hermes11InstructionELb0ELb0EvEEE7getPrevEv(ptr noundef nonnull align 8 dereferenceable(16) %0)
  %NodePtr2 = getelementptr inbounds %"class.llvh::ilist_iterator", ptr %this1, i32 0, i32 0
  store ptr %call, ptr %NodePtr2, align 8
  ret ptr %this1
}

; Function Attrs: mustprogress nounwind uwtable
define linkonce_odr hidden noundef zeroext i1 @_ZN4llvhneERKNS_14ilist_iteratorINS_12ilist_detail12node_optionsIN6hermes11InstructionELb0ELb0EvEELb0ELb1EEES8_(ptr noundef nonnull align 8 dereferenceable(8) %LHS, ptr noundef nonnull align 8 dereferenceable(8) %RHS) #0 comdat {
entry:
  %LHS.addr = alloca ptr, align 8
  %RHS.addr = alloca ptr, align 8
  store ptr %LHS, ptr %LHS.addr, align 8
  store ptr %RHS, ptr %RHS.addr, align 8
  %0 = load ptr, ptr %LHS.addr, align 8
  %NodePtr = getelementptr inbounds %"class.llvh::ilist_iterator", ptr %0, i32 0, i32 0
  %1 = load ptr, ptr %NodePtr, align 8
  %2 = load ptr, ptr %RHS.addr, align 8
  %NodePtr1 = getelementptr inbounds %"class.llvh::ilist_iterator", ptr %2, i32 0, i32 0
  %3 = load ptr, ptr %NodePtr1, align 8
  %cmp = icmp ne ptr %1, %3
  ret i1 %cmp
}

; Function Attrs: mustprogress nounwind uwtable
define linkonce_odr hidden ptr @_ZNK6hermes10BasicBlock5beginEv(ptr noundef nonnull align 8 dereferenceable(80) %this) #0 comdat align 2 {
entry:
  %retval = alloca %"class.llvh::ilist_iterator", align 8
  %this.addr = alloca ptr, align 8
  store ptr %this, ptr %this.addr, align 8
  %this1 = load ptr, ptr %this.addr, align 8
  %InstList = getelementptr inbounds %"class.hermes::BasicBlock", ptr %this1, i32 0, i32 2
  %call = call ptr @_ZNK4llvh12simple_ilistIN6hermes11InstructionEJEE5beginEv(ptr noundef nonnull align 8 dereferenceable(16) %InstList)
  %coerce.dive = getelementptr inbounds %"class.llvh::ilist_iterator", ptr %retval, i32 0, i32 0
  store ptr %call, ptr %coerce.dive, align 8
  %coerce.dive2 = getelementptr inbounds %"class.llvh::ilist_iterator", ptr %retval, i32 0, i32 0
  %0 = load ptr, ptr %coerce.dive2, align 8
  ret ptr %0
}

; Function Attrs: mustprogress nounwind uwtable
define linkonce_odr hidden ptr @_ZNK4llvh15ilist_node_implINS_12ilist_detail12node_optionsIN6hermes11InstructionELb0ELb0EvEEE11getIteratorEv(ptr noundef nonnull align 8 dereferenceable(16) %this) #0 comdat align 2 {
entry:
  %retval = alloca %"class.llvh::ilist_iterator", align 8
  %this.addr = alloca ptr, align 8
  store ptr %this, ptr %this.addr, align 8
  %this1 = load ptr, ptr %this.addr, align 8
  call void @_ZN4llvh14ilist_iteratorINS_12ilist_detail12node_optionsIN6hermes11InstructionELb0ELb0EvEELb0ELb1EEC2ERKNS_15ilist_node_implIS5_EE(ptr noundef nonnull align 8 dereferenceable(8) %retval, ptr noundef nonnull align 8 dereferenceable(16) %this1)
  %coerce.dive = getelementptr inbounds %"class.llvh::ilist_iterator", ptr %retval, i32 0, i32 0
  %0 = load ptr, ptr %coerce.dive, align 8
  ret ptr %0
}

; Function Attrs: mustprogress nounwind uwtable
define linkonce_odr hidden noundef ptr @_ZNK6hermes11Instruction9getParentEv(ptr noundef nonnull align 8 dereferenceable(132) %this) #0 comdat align 2 {
entry:
  %this.addr = alloca ptr, align 8
  store ptr %this, ptr %this.addr, align 8
  %this1 = load ptr, ptr %this.addr, align 8
  %Parent = getelementptr inbounds %"class.hermes::Instruction", ptr %this1, i32 0, i32 2
  %0 = load ptr, ptr %Parent, align 8
  ret ptr %0
}

; Function Attrs: mustprogress nounwind uwtable
define hidden noundef zeroext i1 @_ZNK6hermes13DominanceInfo17properlyDominatesEPKNS_11InstructionES3_(ptr noundef nonnull align 8 dereferenceable(72) %this, ptr noundef %A, ptr noundef %B) #0 align 2 {
entry:
  %retval = alloca i1, align 1
  %this.addr = alloca ptr, align 8
  %A.addr = alloca ptr, align 8
  %B.addr = alloca ptr, align 8
  %ABB = alloca ptr, align 8
  %BBB = alloca ptr, align 8
  %ItA = alloca %"class.llvh::ilist_iterator", align 8
  %ItB = alloca %"class.llvh::ilist_iterator", align 8
  %E = alloca %"class.llvh::ilist_iterator", align 8
  store ptr %this, ptr %this.addr, align 8
  store ptr %A, ptr %A.addr, align 8
  store ptr %B, ptr %B.addr, align 8
  %this1 = load ptr, ptr %this.addr, align 8
  %0 = load ptr, ptr %A.addr, align 8
  %call = call noundef ptr @_ZNK6hermes11Instruction9getParentEv(ptr noundef nonnull align 8 dereferenceable(132) %0)
  store ptr %call, ptr %ABB, align 8
  %1 = load ptr, ptr %B.addr, align 8
  %call2 = call noundef ptr @_ZNK6hermes11Instruction9getParentEv(ptr noundef nonnull align 8 dereferenceable(132) %1)
  store ptr %call2, ptr %BBB, align 8
  %2 = load ptr, ptr %ABB, align 8
  %3 = load ptr, ptr %BBB, align 8
  %cmp = icmp ne ptr %2, %3
  br i1 %cmp, label %if.then, label %if.end

if.then:                                          ; preds = %entry
  %4 = load ptr, ptr %ABB, align 8
  %5 = load ptr, ptr %BBB, align 8
  %call3 = call noundef zeroext i1 @_ZNK4llvh17DominatorTreeBaseIN6hermes10BasicBlockELb0EE17properlyDominatesEPKS2_S5_(ptr noundef nonnull align 8 dereferenceable(72) %this1, ptr noundef %4, ptr noundef %5)
  store i1 %call3, ptr %retval, align 1
  br label %return

if.end:                                           ; preds = %entry
  %6 = load ptr, ptr %A.addr, align 8
  %call4 = call ptr @_ZNK4llvh15ilist_node_implINS_12ilist_detail12node_optionsIN6hermes11InstructionELb0ELb0EvEEE11getIteratorEv(ptr noundef nonnull align 8 dereferenceable(16) %6)
  %coerce.dive = getelementptr inbounds %"class.llvh::ilist_iterator", ptr %ItA, i32 0, i32 0
  store ptr %call4, ptr %coerce.dive, align 8
  %7 = load ptr, ptr %B.addr, align 8
  %call5 = call ptr @_ZNK4llvh15ilist_node_implINS_12ilist_detail12node_optionsIN6hermes11InstructionELb0ELb0EvEEE11getIteratorEv(ptr noundef nonnull align 8 dereferenceable(16) %7)
  %coerce.dive6 = getelementptr inbounds %"class.llvh::ilist_iterator", ptr %ItB, i32 0, i32 0
  store ptr %call5, ptr %coerce.dive6, align 8
  %8 = load ptr, ptr %ABB, align 8
  %call7 = call ptr @_ZNK6hermes10BasicBlock5beginEv(ptr noundef nonnull align 8 dereferenceable(80) %8)
  %coerce.dive8 = getelementptr inbounds %"class.llvh::ilist_iterator", ptr %E, i32 0, i32 0
  store ptr %call7, ptr %coerce.dive8, align 8
  br label %while.cond

while.cond:                                       ; preds = %if.end13, %if.end
  %call9 = call noundef zeroext i1 @_ZN4llvhneERKNS_14ilist_iteratorINS_12ilist_detail12node_optionsIN6hermes11InstructionELb0ELb0EvEELb0ELb1EEES8_(ptr noundef nonnull align 8 dereferenceable(8) %ItB, ptr noundef nonnull align 8 dereferenceable(8) %E)
  br i1 %call9, label %while.body, label %while.end

while.body:                                       ; preds = %while.cond
  %call10 = call noundef nonnull align 8 dereferenceable(8) ptr @_ZN4llvh14ilist_iteratorINS_12ilist_detail12node_optionsIN6hermes11InstructionELb0ELb0EvEELb0ELb1EEmmEv(ptr noundef nonnull align 8 dereferenceable(8) %ItB)
  %call11 = call noundef zeroext i1 @_ZN4llvheqERKNS_14ilist_iteratorINS_12ilist_detail12node_optionsIN6hermes11InstructionELb0ELb0EvEELb0ELb1EEES8_(ptr noundef nonnull align 8 dereferenceable(8) %ItA, ptr noundef nonnull align 8 dereferenceable(8) %ItB)
  br i1 %call11, label %if.then12, label %if.end13

if.then12:                                        ; preds = %while.body
  store i1 true, ptr %retval, align 1
  br label %return

if.end13:                                         ; preds = %while.body
  br label %while.cond, !llvm.loop !14

while.end:                                        ; preds = %while.cond
  store i1 false, ptr %retval, align 1
  br label %return

return:                                           ; preds = %while.end, %if.then12, %if.then
  %9 = load i1, ptr %retval, align 1
  ret i1 %9
}