; Function Attrs: mustprogress nounwind uwtable
define hidden noundef zeroext i1 @_ZNK6hermes13DominanceInfo17properlyDominatesEPKNS_11InstructionES3_(ptr noundef nonnull align 8 dereferenceable(72) %this, ptr noundef readonly %A, ptr noundef readonly %B) local_unnamed_addr #0 align 2 {
entry:
  %Parent.i = getelementptr inbounds nuw i8, ptr %A, i64 56
  %0 = load ptr, ptr %Parent.i, align 8
  %Parent.i6 = getelementptr inbounds nuw i8, ptr %B, i64 56
  %1 = load ptr, ptr %Parent.i6, align 8
  %cmp.not = icmp eq ptr %0, %1
  br i1 %cmp.not, label %if.end, label %if.then

if.then:                                          ; preds = %entry
  %call3 = tail call noundef zeroext i1 @_ZNK4llvh17DominatorTreeBaseIN6hermes10BasicBlockELb0EE17properlyDominatesEPKS2_S5_(ptr noundef nonnull align 8 dereferenceable(72) %this, ptr noundef %0, ptr noundef %1)
  br label %return

if.end:                                           ; preds = %entry
  %Next.i.i.i.i.i = getelementptr inbounds nuw i8, ptr %0, i64 64
  %2 = load ptr, ptr %Next.i.i.i.i.i, align 8
  br label %while.cond

while.cond:                                       ; preds = %while.body, %if.end
  %ItB.sroa.0.0 = phi ptr [ %B, %if.end ], [ %3, %while.body ]
  %cmp.i.not.not.not = icmp ne ptr %ItB.sroa.0.0, %2
  br i1 %cmp.i.not.not.not, label %while.body, label %return

while.body:                                       ; preds = %while.cond
  %3 = load ptr, ptr %ItB.sroa.0.0, align 8
  %cmp.i7 = icmp eq ptr %A, %3
  br i1 %cmp.i7, label %return, label %while.cond, !llvm.loop !49

return:                                           ; preds = %while.cond, %while.body, %if.then
  %retval.0 = phi i1 [ %call3, %if.then ], [ %cmp.i.not.not.not, %while.body ], [ %cmp.i.not.not.not, %while.cond ]
  ret i1 %retval.0
}